; Function Attrs: nounwind uwtable
define zeroext i1 @duckdb_je_ehooks_default_merge(ptr readnone captures(none) %0, ptr noundef %1, i64 %2, ptr noundef %3, i64 %4, i1 zeroext %5, i32 %6) #1 {
  %8 = load i8, ptr @duckdb_je_tsd_booted, align 1, !tbaa !10, !range !12, !noundef !13
  %9 = trunc nuw i8 %8 to i1
  br i1 %9, label %10, label %tsdn_fetch.exit

10:                                               ; preds = %7
  %11 = tail call nonnull align 8 ptr @llvm.threadlocal.address.p0(ptr align 8 @duckdb_je_tsd_tls)
  %12 = getelementptr inbounds nuw i8, ptr %11, i64 824
  %13 = load i8, ptr %12, align 8, !tbaa !14
  %.not.i = icmp eq i8 %13, 0
  br i1 %.not.i, label %tsdn_fetch.exit, label %14, !prof !15

14:                                               ; preds = %10
  %15 = tail call ptr @duckdb_je_tsd_fetch_slow(ptr noundef nonnull %11, i1 noundef zeroext false) #6
  br label %tsdn_fetch.exit

tsdn_fetch.exit:                                  ; preds = %14, %10, %7
  %16 = tail call zeroext i1 @duckdb_je_extent_dss_mergeable(ptr noundef %1, ptr noundef %3) #6
  %.0.i4 = xor i1 %16, true
  ret i1 %.0.i4
}